target datalayout = "e-m:e-p270:32:32-p271:32:32-p272:64:64-i64:64-i128:128-f80:128-n8:16:32:64-S128"
target triple = "x86_64-pc-linux-gnu"

%struct.SSL_TEST_SERVER_CONF = type { i32, ptr, ptr, i32, i32, ptr, ptr, i32, ptr }

@.str.14 = private unnamed_addr constant [36 x i8] c"../openssl/test/ssl_test_ctx_test.c\00", align 1
@.str.75 = private unnamed_addr constant [26 x i8] c"serv->servername_callback\00", align 1
@.str.76 = private unnamed_addr constant [27 x i8] c"serv2->servername_callback\00", align 1
@.str.77 = private unnamed_addr constant [20 x i8] c"serv->npn_protocols\00", align 1
@.str.78 = private unnamed_addr constant [21 x i8] c"serv2->npn_protocols\00", align 1
@.str.79 = private unnamed_addr constant [21 x i8] c"serv->alpn_protocols\00", align 1
@.str.80 = private unnamed_addr constant [22 x i8] c"serv2->alpn_protocols\00", align 1
@.str.81 = private unnamed_addr constant [28 x i8] c"serv->broken_session_ticket\00", align 1
@.str.82 = private unnamed_addr constant [29 x i8] c"serv2->broken_session_ticket\00", align 1
@.str.83 = private unnamed_addr constant [30 x i8] c"serv->session_ticket_app_data\00", align 1
@.str.84 = private unnamed_addr constant [31 x i8] c"serv2->session_ticket_app_data\00", align 1
@.str.85 = private unnamed_addr constant [18 x i8] c"serv->cert_status\00", align 1
@.str.86 = private unnamed_addr constant [19 x i8] c"serv2->cert_status\00", align 1

; Function Attrs: nounwind uwtable
define internal i32 @serverconf_eq(ptr noundef %0, ptr noundef %1) #0 {
  %3 = alloca i32, align 4
  %4 = alloca ptr, align 8
  %5 = alloca ptr, align 8
  store ptr %0, ptr %4, align 8, !tbaa !45
  store ptr %1, ptr %5, align 8, !tbaa !45
  %6 = load ptr, ptr %4, align 8, !tbaa !45
  %7 = getelementptr inbounds nuw %struct.SSL_TEST_SERVER_CONF, ptr %6, i32 0, i32 0
  %8 = load i32, ptr %7, align 8, !tbaa !58
  %9 = load ptr, ptr %5, align 8, !tbaa !45
  %10 = getelementptr inbounds nuw %struct.SSL_TEST_SERVER_CONF, ptr %9, i32 0, i32 0
  %11 = load i32, ptr %10, align 8, !tbaa !58
  %12 = call i32 @test_int_eq(ptr noundef @.str.14, i32 noundef 53, ptr noundef @.str.75, ptr noundef @.str.76, i32 noundef %8, i32 noundef %11)
  %13 = icmp ne i32 %12, 0
  br i1 %13, label %14, label %59

14:                                               ; preds = %2
  %15 = load ptr, ptr %4, align 8, !tbaa !45
  %16 = getelementptr inbounds nuw %struct.SSL_TEST_SERVER_CONF, ptr %15, i32 0, i32 1
  %17 = load ptr, ptr %16, align 8, !tbaa !59
  %18 = load ptr, ptr %5, align 8, !tbaa !45
  %19 = getelementptr inbounds nuw %struct.SSL_TEST_SERVER_CONF, ptr %18, i32 0, i32 1
  %20 = load ptr, ptr %19, align 8, !tbaa !59
  %21 = call i32 @test_str_eq(ptr noundef @.str.14, i32 noundef 54, ptr noundef @.str.77, ptr noundef @.str.78, ptr noundef %17, ptr noundef %20)
  %22 = icmp ne i32 %21, 0
  br i1 %22, label %23, label %59

23:                                               ; preds = %14
  %24 = load ptr, ptr %4, align 8, !tbaa !45
  %25 = getelementptr inbounds nuw %struct.SSL_TEST_SERVER_CONF, ptr %24, i32 0, i32 2
  %26 = load ptr, ptr %25, align 8, !tbaa !60
  %27 = load ptr, ptr %5, align 8, !tbaa !45
  %28 = getelementptr inbounds nuw %struct.SSL_TEST_SERVER_CONF, ptr %27, i32 0, i32 2
  %29 = load ptr, ptr %28, align 8, !tbaa !60
  %30 = call i32 @test_str_eq(ptr noundef @.str.14, i32 noundef 55, ptr noundef @.str.79, ptr noundef @.str.80, ptr noundef %26, ptr noundef %29)
  %31 = icmp ne i32 %30, 0
  br i1 %31, label %32, label %59

32:                                               ; preds = %23
  %33 = load ptr, ptr %4, align 8, !tbaa !45
  %34 = getelementptr inbounds nuw %struct.SSL_TEST_SERVER_CONF, ptr %33, i32 0, i32 3
  %35 = load i32, ptr %34, align 8, !tbaa !61
  %36 = load ptr, ptr %5, align 8, !tbaa !45
  %37 = getelementptr inbounds nuw %struct.SSL_TEST_SERVER_CONF, ptr %36, i32 0, i32 3
  %38 = load i32, ptr %37, align 8, !tbaa !61
  %39 = call i32 @test_int_eq(ptr noundef @.str.14, i32 noundef 57, ptr noundef @.str.81, ptr noundef @.str.82, i32 noundef %35, i32 noundef %38)
  %40 = icmp ne i32 %39, 0
  br i1 %40, label %41, label %59

41:                                               ; preds = %32
  %42 = load ptr, ptr %4, align 8, !tbaa !45
  %43 = getelementptr inbounds nuw %struct.SSL_TEST_SERVER_CONF, ptr %42, i32 0, i32 8
  %44 = load ptr, ptr %43, align 8, !tbaa !62
  %45 = load ptr, ptr %5, align 8, !tbaa !45
  %46 = getelementptr inbounds nuw %struct.SSL_TEST_SERVER_CONF, ptr %45, i32 0, i32 8
  %47 = load ptr, ptr %46, align 8, !tbaa !62
  %48 = call i32 @test_str_eq(ptr noundef @.str.14, i32 noundef 59, ptr noundef @.str.83, ptr noundef @.str.84, ptr noundef %44, ptr noundef %47)
  %49 = icmp ne i32 %48, 0
  br i1 %49, label %50, label %59

50:                                               ; preds = %41
  %51 = load ptr, ptr %4, align 8, !tbaa !45
  %52 = getelementptr inbounds nuw %struct.SSL_TEST_SERVER_CONF, ptr %51, i32 0, i32 4
  %53 = load i32, ptr %52, align 4, !tbaa !63
  %54 = load ptr, ptr %5, align 8, !tbaa !45
  %55 = getelementptr inbounds nuw %struct.SSL_TEST_SERVER_CONF, ptr %54, i32 0, i32 4
  %56 = load i32, ptr %55, align 4, !tbaa !63
  %57 = call i32 @test_int_eq(ptr noundef @.str.14, i32 noundef 60, ptr noundef @.str.85, ptr noundef @.str.86, i32 noundef %53, i32 noundef %56)
  %58 = icmp ne i32 %57, 0
  br i1 %58, label %60, label %59

59:                                               ; preds = %50, %41, %32, %23, %14, %2
  store i32 0, ptr %3, align 4
  br label %61

60:                                               ; preds = %50
  store i32 1, ptr %3, align 4
  br label %61

61:                                               ; preds = %60, %59
  %62 = load i32, ptr %3, align 4
  ret i32 %62
}