; Function Attrs: nounwind uwtable
define internal fastcc range(i32 0, 2) i32 @serverconf_eq(ptr noundef readonly captures(none) %0, ptr noundef readonly captures(none) %1) unnamed_addr #1 {
  %3 = load i32, ptr %0, align 8, !tbaa !54
  %4 = load i32, ptr %1, align 8, !tbaa !54
  %5 = tail call i32 @test_int_eq(ptr noundef nonnull @.str.14, i32 noundef 53, ptr noundef nonnull @.str.75, ptr noundef nonnull @.str.76, i32 noundef %3, i32 noundef %4) #3
  %.not = icmp eq i32 %5, 0
  br i1 %.not, label %36, label %6

6:                                                ; preds = %2
  %7 = getelementptr inbounds nuw i8, ptr %0, i64 8
  %8 = load ptr, ptr %7, align 8, !tbaa !55
  %9 = getelementptr inbounds nuw i8, ptr %1, i64 8
  %10 = load ptr, ptr %9, align 8, !tbaa !55
  %11 = tail call i32 @test_str_eq(ptr noundef nonnull @.str.14, i32 noundef 54, ptr noundef nonnull @.str.77, ptr noundef nonnull @.str.78, ptr noundef %8, ptr noundef %10) #3
  %.not12 = icmp eq i32 %11, 0
  br i1 %.not12, label %36, label %12

12:                                               ; preds = %6
  %13 = getelementptr inbounds nuw i8, ptr %0, i64 16
  %14 = load ptr, ptr %13, align 8, !tbaa !56
  %15 = getelementptr inbounds nuw i8, ptr %1, i64 16
  %16 = load ptr, ptr %15, align 8, !tbaa !56
  %17 = tail call i32 @test_str_eq(ptr noundef nonnull @.str.14, i32 noundef 55, ptr noundef nonnull @.str.79, ptr noundef nonnull @.str.80, ptr noundef %14, ptr noundef %16) #3
  %.not13 = icmp eq i32 %17, 0
  br i1 %.not13, label %36, label %18

18:                                               ; preds = %12
  %19 = getelementptr inbounds nuw i8, ptr %0, i64 24
  %20 = load i32, ptr %19, align 8, !tbaa !57
  %21 = getelementptr inbounds nuw i8, ptr %1, i64 24
  %22 = load i32, ptr %21, align 8, !tbaa !57
  %23 = tail call i32 @test_int_eq(ptr noundef nonnull @.str.14, i32 noundef 57, ptr noundef nonnull @.str.81, ptr noundef nonnull @.str.82, i32 noundef %20, i32 noundef %22) #3
  %.not14 = icmp eq i32 %23, 0
  br i1 %.not14, label %36, label %24

24:                                               ; preds = %18
  %25 = getelementptr inbounds nuw i8, ptr %0, i64 56
  %26 = load ptr, ptr %25, align 8, !tbaa !58
  %27 = getelementptr inbounds nuw i8, ptr %1, i64 56
  %28 = load ptr, ptr %27, align 8, !tbaa !58
  %29 = tail call i32 @test_str_eq(ptr noundef nonnull @.str.14, i32 noundef 59, ptr noundef nonnull @.str.83, ptr noundef nonnull @.str.84, ptr noundef %26, ptr noundef %28) #3
  %.not15 = icmp eq i32 %29, 0
  br i1 %.not15, label %36, label %30

30:                                               ; preds = %24
  %31 = getelementptr inbounds nuw i8, ptr %0, i64 28
  %32 = load i32, ptr %31, align 4, !tbaa !59
  %33 = getelementptr inbounds nuw i8, ptr %1, i64 28
  %34 = load i32, ptr %33, align 4, !tbaa !59
  %35 = tail call i32 @test_int_eq(ptr noundef nonnull @.str.14, i32 noundef 60, ptr noundef nonnull @.str.85, ptr noundef nonnull @.str.86, i32 noundef %32, i32 noundef %34) #3
  %.not16 = icmp ne i32 %35, 0
  %spec.select = zext i1 %.not16 to i32
  br label %36

36:                                               ; preds = %30, %2, %6, %12, %18, %24
  %.0 = phi i32 [ 0, %24 ], [ 0, %18 ], [ 0, %12 ], [ 0, %6 ], [ 0, %2 ], [ %spec.select, %30 ]
  ret i32 %.0
}